; Function Attrs: mustprogress nounwind uwtable
define void @_ZN32pxrInternal_v0_24__pxrReserved__9GfFrustum14SetPerspectiveEdddd(ptr nocapture noundef nonnull align 8 dereferenceable(128) %0, double noundef %1, double noundef %2, double noundef %3, double noundef %4) local_unnamed_addr #4 align 2 {
  %6 = getelementptr inbounds nuw i8, ptr %0, i64 112
  store i32 1, ptr %6, align 8
  %7 = fcmp oeq double %2, 0.000000e+00
  %.015.i = select i1 %7, double 1.000000e+00, double %2
  %8 = fmul double %1, 5.000000e-01
  %9 = fmul double %8, 0x3F91DF46A2529D39
  %10 = tail call double @tan(double noundef %9) #24
  %11 = fmul double %.015.i, %10
  %12 = getelementptr inbounds nuw i8, ptr %0, i64 56
  %13 = fneg double %11
  %14 = fneg double %10
  store double %13, ptr %12, align 8
  %.sroa.218.0..sroa_idx.i = getelementptr inbounds i8, ptr %0, i64 64
  store double %14, ptr %.sroa.218.0..sroa_idx.i, align 8
  %15 = getelementptr inbounds i8, ptr %0, i64 72
  store double %11, ptr %15, align 8
  %.sroa.2.0..sroa_idx.i = getelementptr inbounds i8, ptr %0, i64 80
  store double %10, ptr %.sroa.2.0..sroa_idx.i, align 8
  %16 = getelementptr inbounds nuw i8, ptr %0, i64 88
  store double %3, ptr %16, align 8
  %17 = getelementptr inbounds i8, ptr %0, i64 96
  store double %4, ptr %17, align 8
  %18 = getelementptr inbounds nuw i8, ptr %0, i64 120
  %19 = atomicrmw xchg ptr %18, i64 0 monotonic, align 8
  %20 = icmp eq i64 %19, 0
  br i1 %20, label %_ZN32pxrInternal_v0_24__pxrReserved__9GfFrustum14SetPerspectiveEdbddd.exit, label %21

21:                                               ; preds = %5
  %.0.i.i.i = inttoptr i64 %19 to ptr
  tail call void @_ZdlPvm(ptr noundef nonnull %.0.i.i.i, i64 noundef 192) #25
  br label %_ZN32pxrInternal_v0_24__pxrReserved__9GfFrustum14SetPerspectiveEdbddd.exit

_ZN32pxrInternal_v0_24__pxrReserved__9GfFrustum14SetPerspectiveEdbddd.exit: ; preds = %5, %21
  ret void
}